target datalayout = "e-m:e-p270:32:32-p271:32:32-p272:64:64-i64:64-i128:128-f80:128-n8:16:32:64-S128"
target triple = "x86_64-pc-linux-gnu"

%struct._timelib_time = type { i64, i64, i64, i64, i64, i64, i64, i32, ptr, ptr, i32, %struct._timelib_rel_time, i64, i32, i32, i32, i32, i32, i32, i32, i32, i32 }
%struct._timelib_rel_time = type { i64, i64, i64, i64, i64, i64, i64, i32, i32, i32, i32, i64, %struct.anon, i32, i32 }
%struct.anon = type { i32, i64 }
%struct._timelib_abbr_info = type { i64, ptr, i32 }

; Function Attrs: nounwind uwtable
define hidden void @timelib_set_timezone_from_abbr(ptr noundef %0, ptr noundef byval(%struct._timelib_abbr_info) align 8 %1) #0 {
  %3 = alloca ptr, align 8
  store ptr %0, ptr %3, align 8, !tbaa !11
  %4 = load ptr, ptr %3, align 8, !tbaa !11
  %5 = getelementptr inbounds nuw %struct._timelib_time, ptr %4, i32 0, i32 8
  %6 = load ptr, ptr %5, align 8, !tbaa !39
  %7 = icmp ne ptr %6, null
  br i1 %7, label %8, label %12

8:                                                ; preds = %2
  %9 = load ptr, ptr %3, align 8, !tbaa !11
  %10 = getelementptr inbounds nuw %struct._timelib_time, ptr %9, i32 0, i32 8
  %11 = load ptr, ptr %10, align 8, !tbaa !39
  call void @_efree(ptr noundef %11)
  br label %12

12:                                               ; preds = %8, %2
  %13 = getelementptr inbounds nuw %struct._timelib_abbr_info, ptr %1, i32 0, i32 1
  %14 = load ptr, ptr %13, align 8, !tbaa !40
  %15 = call noalias ptr @_estrdup(ptr noundef %14)
  %16 = load ptr, ptr %3, align 8, !tbaa !11
  %17 = getelementptr inbounds nuw %struct._timelib_time, ptr %16, i32 0, i32 8
  store ptr %15, ptr %17, align 8, !tbaa !39
  %18 = getelementptr inbounds nuw %struct._timelib_abbr_info, ptr %1, i32 0, i32 0
  %19 = load i64, ptr %18, align 8, !tbaa !42
  %20 = trunc i64 %19 to i32
  %21 = load ptr, ptr %3, align 8, !tbaa !11
  %22 = getelementptr inbounds nuw %struct._timelib_time, ptr %21, i32 0, i32 7
  store i32 %20, ptr %22, align 8, !tbaa !22
  %23 = load ptr, ptr %3, align 8, !tbaa !11
  %24 = getelementptr inbounds nuw %struct._timelib_time, ptr %23, i32 0, i32 15
  store i32 1, ptr %24, align 8, !tbaa !31
  %25 = load ptr, ptr %3, align 8, !tbaa !11
  %26 = getelementptr inbounds nuw %struct._timelib_time, ptr %25, i32 0, i32 21
  store i32 2, ptr %26, align 8, !tbaa !29
  %27 = getelementptr inbounds nuw %struct._timelib_abbr_info, ptr %1, i32 0, i32 2
  %28 = load i32, ptr %27, align 8, !tbaa !43
  %29 = load ptr, ptr %3, align 8, !tbaa !11
  %30 = getelementptr inbounds nuw %struct._timelib_time, ptr %29, i32 0, i32 10
  store i32 %28, ptr %30, align 8, !tbaa !23
  %31 = load ptr, ptr %3, align 8, !tbaa !11
  %32 = getelementptr inbounds nuw %struct._timelib_time, ptr %31, i32 0, i32 9
  store ptr null, ptr %32, align 8, !tbaa !30
  ret void
}