; Function Attrs: nounwind uwtable
define hidden void @timelib_set_timezone_from_abbr(ptr noundef captures(none) initializes((56, 60), (72, 84), (208, 212), (232, 236)) %0, ptr noundef readonly byval(%struct._timelib_abbr_info) align 8 captures(none) %1) local_unnamed_addr #3 {
  %3 = getelementptr inbounds nuw i8, ptr %0, i64 64
  %4 = load ptr, ptr %3, align 8, !tbaa !32
  %.not = icmp eq ptr %4, null
  br i1 %.not, label %6, label %5

5:                                                ; preds = %2
  tail call void @_efree(ptr noundef nonnull %4) #5
  br label %6

6:                                                ; preds = %5, %2
  %7 = getelementptr inbounds nuw i8, ptr %1, i64 8
  %8 = load ptr, ptr %7, align 8, !tbaa !33
  %9 = tail call noalias ptr @_estrdup(ptr noundef %8) #5
  store ptr %9, ptr %3, align 8, !tbaa !32
  %10 = load i64, ptr %1, align 8, !tbaa !35
  %11 = trunc i64 %10 to i32
  %12 = getelementptr inbounds nuw i8, ptr %0, i64 56
  store i32 %11, ptr %12, align 8, !tbaa !18
  %13 = getelementptr inbounds nuw i8, ptr %0, i64 208
  store i32 1, ptr %13, align 8, !tbaa !27
  %14 = getelementptr inbounds nuw i8, ptr %0, i64 232
  store i32 2, ptr %14, align 8, !tbaa !24
  %15 = getelementptr inbounds nuw i8, ptr %1, i64 16
  %16 = load i32, ptr %15, align 8, !tbaa !36
  %17 = getelementptr inbounds nuw i8, ptr %0, i64 80
  store i32 %16, ptr %17, align 8, !tbaa !19
  %18 = getelementptr inbounds nuw i8, ptr %0, i64 72
  store ptr null, ptr %18, align 8, !tbaa !26
  ret void
}